target datalayout = "e-m:e-p270:32:32-p271:32:32-p272:64:64-i64:64-i128:128-f80:128-n8:16:32:64-S128"
target triple = "x86_64-pc-linux-gnu"

%class.G1PageBasedVirtualSpace = type <{ ptr, ptr, i64, i64, %class.CHeapBitMap, %class.CHeapBitMap, i8, [7 x i8] }>
%class.CHeapBitMap = type <{ %class.GrowableBitMap, i8, [7 x i8] }>
%class.GrowableBitMap = type { %class.BitMap }
%class.BitMap = type { ptr, i64 }

; Function Attrs: mustprogress nounwind uwtable
define linkonce_odr hidden noundef ptr @_Z4MIN2IPcET_S1_S1_(ptr noundef %0, ptr noundef %1) #1 comdat {
  %3 = alloca ptr, align 8
  %4 = alloca ptr, align 8
  store ptr %0, ptr %3, align 8
  store ptr %1, ptr %4, align 8
  %5 = load ptr, ptr %3, align 8
  %6 = load ptr, ptr %4, align 8
  %7 = icmp ult ptr %5, %6
  br i1 %7, label %8, label %10

8:                                                ; preds = %2
  %9 = load ptr, ptr %3, align 8
  br label %12

10:                                               ; preds = %2
  %11 = load ptr, ptr %4, align 8
  br label %12

12:                                               ; preds = %10, %8
  %13 = phi ptr [ %9, %8 ], [ %11, %10 ]
  ret ptr %13
}

; Function Attrs: mustprogress nounwind uwtable
define hidden noundef ptr @_ZNK23G1PageBasedVirtualSpace10page_startEm(ptr noundef nonnull align 8 dereferenceable(81) %0, i64 noundef %1) #1 align 2 {
  %3 = alloca ptr, align 8
  %4 = alloca i64, align 8
  store ptr %0, ptr %3, align 8
  store i64 %1, ptr %4, align 8
  %5 = load ptr, ptr %3, align 8
  %6 = getelementptr inbounds %class.G1PageBasedVirtualSpace, ptr %5, i32 0, i32 0
  %7 = load ptr, ptr %6, align 8
  %8 = load i64, ptr %4, align 8
  %9 = getelementptr inbounds %class.G1PageBasedVirtualSpace, ptr %5, i32 0, i32 3
  %10 = load i64, ptr %9, align 8
  %11 = mul i64 %8, %10
  %12 = getelementptr inbounds i8, ptr %7, i64 %11
  ret ptr %12
}

; Function Attrs: mustprogress nounwind uwtable
define hidden noundef ptr @_ZNK23G1PageBasedVirtualSpace16bounded_end_addrEm(ptr noundef nonnull align 8 dereferenceable(81) %0, i64 noundef %1) #1 align 2 {
  %3 = alloca ptr, align 8
  %4 = alloca i64, align 8
  store ptr %0, ptr %3, align 8
  store i64 %1, ptr %4, align 8
  %5 = load ptr, ptr %3, align 8
  %6 = getelementptr inbounds %class.G1PageBasedVirtualSpace, ptr %5, i32 0, i32 1
  %7 = load ptr, ptr %6, align 8
  %8 = load i64, ptr %4, align 8
  %9 = call noundef ptr @_ZNK23G1PageBasedVirtualSpace10page_startEm(ptr noundef nonnull align 8 dereferenceable(81) %5, i64 noundef %8)
  %10 = call noundef ptr @_Z4MIN2IPcET_S1_S1_(ptr noundef %7, ptr noundef %9)
  ret ptr %10
}