; Function Attrs: mustprogress nofree norecurse nosync nounwind willreturn memory(argmem: read) uwtable
define hidden noundef ptr @_ZNK23G1PageBasedVirtualSpace16bounded_end_addrEm(ptr nocapture noundef nonnull readonly align 8 dereferenceable(81) %0, i64 noundef %1) local_unnamed_addr #4 align 2 {
  %3 = getelementptr inbounds i8, ptr %0, i64 8
  %4 = load ptr, ptr %3, align 8
  %5 = load ptr, ptr %0, align 8
  %6 = getelementptr inbounds i8, ptr %0, i64 24
  %7 = load i64, ptr %6, align 8
  %8 = mul i64 %7, %1
  %9 = getelementptr inbounds i8, ptr %5, i64 %8
  %10 = icmp ult ptr %4, %9
  %11 = select i1 %10, ptr %4, ptr %9
  ret ptr %11
}